target datalayout = "e-m:e-p270:32:32-p271:32:32-p272:64:64-i64:64-i128:128-f80:128-n8:16:32:64-S128"
target triple = "x86_64-pc-linux-gnu"

%struct.H5F_t = type { ptr, ptr, ptr, ptr, i32, ptr, i8, i8, ptr, i32 }
%struct.H5F_shared_t = type { ptr, ptr, ptr, i8, i32, i32, %struct.H5F_mtab_t, ptr, i8, i8, i64, i32, i32, i64, i64, ptr, ptr, %struct.H5AC_cache_config_t, %struct.H5AC_cache_image_config_t, i8, i8, ptr, i64, i32, i8, i64, i64, double, i64, i64, i64, i32, i32, i32, i8, i32, ptr, ptr, ptr, ptr, i8, i8, i8, i64, i64, ptr, ptr, i32, i64, i8, i32, i8, i64, i8, [13 x i32], [13 x i64], [13 x ptr], i8, i64, i64, [7 x i32], [7 x i32], %struct.H5F_blk_aggr_t, %struct.H5F_blk_aggr_t, i64, i64, %struct.H5F_meta_accum_t, i32, i32, [30 x ptr], %struct.H5F_object_flush_t, i8, ptr }
%struct.H5F_mtab_t = type { i32, i32, ptr }
%struct.H5AC_cache_config_t = type { i32, i8, i8, i8, [1025 x i8], i8, i8, i64, double, i64, i64, i64, i32, double, double, i8, i64, i32, double, double, i32, double, double, i8, i64, i32, i8, double, i64, i32 }
%struct.H5AC_cache_image_config_t = type { i32, i8, i8, i32 }
%struct.H5F_blk_aggr_t = type { i64, i64, i64, i64, i64 }
%struct.H5F_meta_accum_t = type { ptr, i64, i64, i64, i64, i64, i8 }
%struct.H5F_object_flush_t = type { ptr, ptr }

@.str.2 = private unnamed_addr constant [100 x i8] c"generated/home/dtcxzyw/WorkSpace/Projects/compilers/llvm-opt-benchmark/bench/hdf5/hdf5/src/H5Fint.c\00", align 1
@H5E_FILE_g = external global i64, align 8
@H5E_CANTSET_g = external global i64, align 8
@__func__.H5F__set_base_addr = private unnamed_addr constant [19 x i8] c"H5F__set_base_addr\00", align 1
@.str.147 = private unnamed_addr constant [36 x i8] c"driver set_base_addr request failed\00", align 1

; Function Attrs: nounwind uwtable
define i32 @H5F__set_base_addr(ptr noundef %0, i64 noundef %1) #0 {
  %3 = alloca ptr, align 8
  %4 = alloca i64, align 8
  %5 = alloca i32, align 4
  %6 = alloca i8, align 1
  store ptr %0, ptr %3, align 8
  store i64 %1, ptr %4, align 8
  store i32 0, ptr %5, align 4
  store i8 0, ptr %6, align 1
  %7 = load ptr, ptr %3, align 8
  %8 = getelementptr inbounds %struct.H5F_t, ptr %7, i32 0, i32 2
  %9 = load ptr, ptr %8, align 8
  %10 = getelementptr inbounds %struct.H5F_shared_t, ptr %9, i32 0, i32 0
  %11 = load ptr, ptr %10, align 8
  %12 = load i64, ptr %4, align 8
  %13 = call i32 @H5FD_set_base_addr(ptr noundef %11, i64 noundef %12)
  %14 = icmp slt i32 %13, 0
  br i1 %14, label %15, label %30

15:                                               ; preds = %2
  br label %16

16:                                               ; preds = %15
  br label %17

17:                                               ; preds = %16
  br label %18

18:                                               ; preds = %17
  %19 = load i64, ptr @H5E_FILE_g, align 8
  %20 = load i64, ptr @H5E_CANTSET_g, align 8
  %21 = call i32 (ptr, ptr, i32, i64, i64, ptr, ...) @H5E_printf_stack(ptr noundef @.str.2, ptr noundef @__func__.H5F__set_base_addr, i32 noundef 3493, i64 noundef %19, i64 noundef %20, ptr noundef @.str.147)
  br label %22

22:                                               ; preds = %18
  store i8 1, ptr %6, align 1
  %23 = load i8, ptr %6, align 1
  %24 = trunc i8 %23 to i1
  %25 = zext i1 %24 to i8
  store i8 %25, ptr %6, align 1
  br label %26

26:                                               ; preds = %22
  br label %27

27:                                               ; preds = %26
  store i32 -1, ptr %5, align 4
  br label %31

28:                                               ; No predecessors!
  br label %29

29:                                               ; preds = %28
  br label %30

30:                                               ; preds = %29, %2
  br label %31

31:                                               ; preds = %30, %27
  %32 = load i32, ptr %5, align 4
  ret i32 %32
}