; Function Attrs: nounwind uwtable
define range(i32 -1, 1) i32 @H5F__set_base_addr(ptr nocapture noundef readonly %0, i64 noundef %1) local_unnamed_addr #0 {
  %3 = getelementptr inbounds i8, ptr %0, i64 16
  %4 = load ptr, ptr %3, align 8
  %5 = load ptr, ptr %4, align 8
  %6 = tail call i32 @H5FD_set_base_addr(ptr noundef %5, i64 noundef %1) #22
  %7 = icmp slt i32 %6, 0
  br i1 %7, label %8, label %12

8:                                                ; preds = %2
  %9 = load i64, ptr @H5E_FILE_g, align 8
  %10 = load i64, ptr @H5E_CANTSET_g, align 8
  %11 = tail call i32 (ptr, ptr, i32, i64, i64, ptr, ...) @H5E_printf_stack(ptr noundef nonnull @.str.2, ptr noundef nonnull @__func__.H5F__set_base_addr, i32 noundef 3493, i64 noundef %9, i64 noundef %10, ptr noundef nonnull @.str.147) #22
  br label %12

12:                                               ; preds = %2, %8
  %.0 = phi i32 [ -1, %8 ], [ 0, %2 ]
  ret i32 %.0
}